(imor.reduction.container.reductionParam
ReductionParam
p0
(dp1
S'tolGIE'
p2
F0.001
sS'nbrOfModes'
p3
I36
sS'addRigidBodyModes'
p4
(lp5
I1
aI1
aI1
asS'nbTrainingSet'
p6
I800
sS'modesFileName'
p7
S'modes.txt'
p8
sS'listActiveNodesFilesNames'
p9
(lp10
S'reducedFF_legNode_0_listActiveNodes.txt'
p11
aS'reducedFF_paperNode_1_listActiveNodes.txt'
p12
asS'velocityFileName'
p13
NsS'dataDir'
p14
S'/code/src/evolving-soft-robots/assets/reductions/09-29_tolm_0.0032_tolg_0.0010_leg0225/MOR/data'
p15
sS'tolModes'
p16
F0.0032
sS'paramWrapper'
p17
(V/diskWithLegsNode/leg0225Node/legNode
p18
(dp19
S'paramForcefield'
p20
(dp21
S'performECSW'
p22
I01
sS'RIDPath'
p23
S'/data/'
p24
sS'modesPath'
p25
S'/data/modes.txt'
p26
sS'weightsPath'
p27
g24
ssS'paramMORMapping'
p28
(dp29
S'input'
p30
S'@../MechanicalObject'
p31
sg25
S'/data/modes.txt'
p32
ssS'paramMappedMatrixMapping'
p33
(dp34
S'precomputedMassPath'
p35
S'/data/UniformMass_reduced.txt'
p36
sS'object1'
p37
S'@./MechanicalObject'
p38
sS'object2'
p39
g38
sS'listActiveNodesPath'
p40
S'/data/listActiveNodes.txt'
p41
sS'template'
p42
S'Vec1d,Vec1d'
p43
sS'usePrecomputedMass'
p44
I01
sS'timeInvariantMapping2'
p45
I01
sg22
I01
sS'timeInvariantMapping1'
p46
I01
sS'nodeToParse'
p47
V@./legNode
p48
sstp49
sS'stateFileName'
p50
S'stateFile.state'
p51
sS'RIDFilesNames'
p52
(lp53
S'reducedFF_legNode_0_RID.txt'
p54
aS'reducedFF_paperNode_1_RID.txt'
p55
asS'periodSaveGIE'
p56
I12
sS'massName'
p57
S'UniformMass_reduced.txt'
p58
sS'savedElementsFilesNames'
p59
(lp60
S'reducedFF_legNode_0_tetrahedra_elmts.txt'
p61
aS'reducedFF_paperNode_1_triangles_elmts.txt'
p62
asS'weightsFilesNames'
p63
(lp64
S'reducedFF_legNode_0_weight.txt'
p65
aS'reducedFF_paperNode_1_weight.txt'
p66
asS'dataFolder'
p67
g24
sS'gieFilesNames'
p68
(lp69
S'reducedFF_legNode_0_Gie.txt'
p70
aS'reducedFF_paperNode_1_Gie.txt'
p71
asb.